; Function Attrs: nounwind memory(readwrite, argmem: read) uwtable
define internal fastcc range(i32 0, 2) i32 @arkode_butcher_order5a(ptr noundef readonly captures(address_is_null) %0, ptr noundef readonly captures(address_is_null) %1, ptr noundef readonly captures(address_is_null) %2, ptr noundef readonly captures(address_is_null) %3, ptr noundef readonly captures(address_is_null) %4, i32 noundef %5) unnamed_addr #10 {
  %7 = sext i32 %5 to i64
  %8 = tail call noalias ptr @calloc(i64 noundef %7, i64 noundef 8) #16
  %9 = tail call noalias ptr @calloc(i64 noundef %7, i64 noundef 8) #16
  %10 = icmp eq ptr %1, null
  %11 = icmp eq ptr %2, null
  %or.cond.i = or i1 %10, %11
  %12 = icmp eq ptr %8, null
  %or.cond3.i = or i1 %or.cond.i, %12
  %13 = icmp slt i32 %5, 1
  %or.cond5.i = or i1 %13, %or.cond3.i
  br i1 %or.cond5.i, label %arkode_butcher_vv.exit, label %.preheader.preheader.i

.preheader.preheader.i:                           ; preds = %6
  %wide.trip.count.i = zext nneg i32 %5 to i64
  br label %.preheader.i

.preheader.i:                                     ; preds = %.preheader.i, %.preheader.preheader.i
  %indvars.iv.i = phi i64 [ 0, %.preheader.preheader.i ], [ %indvars.iv.next.i, %.preheader.i ]
  %14 = getelementptr inbounds nuw double, ptr %1, i64 %indvars.iv.i
  %15 = load double, ptr %14, align 8, !tbaa !18
  %16 = getelementptr inbounds nuw double, ptr %2, i64 %indvars.iv.i
  %17 = load double, ptr %16, align 8, !tbaa !18
  %18 = fmul double %15, %17
  %19 = getelementptr inbounds nuw double, ptr %8, i64 %indvars.iv.i
  store double %18, ptr %19, align 8, !tbaa !18
  %indvars.iv.next.i = add nuw nsw i64 %indvars.iv.i, 1
  %exitcond.not.i = icmp eq i64 %indvars.iv.next.i, %wide.trip.count.i
  br i1 %exitcond.not.i, label %20, label %.preheader.i

arkode_butcher_vv.exit:                           ; preds = %6
  tail call void @free(ptr noundef %8) #17
  tail call void @free(ptr noundef %9) #17
  br label %arkode_butcher_dot.exit

20:                                               ; preds = %.preheader.i
  %21 = icmp eq ptr %3, null
  %22 = icmp eq ptr %9, null
  %or.cond3.i29 = or i1 %21, %22
  br i1 %or.cond3.i29, label %arkode_butcher_vv.exit38, label %.preheader.i33

.preheader.i33:                                   ; preds = %20, %.preheader.i33
  %indvars.iv.i34 = phi i64 [ %indvars.iv.next.i35, %.preheader.i33 ], [ 0, %20 ]
  %23 = getelementptr inbounds nuw double, ptr %3, i64 %indvars.iv.i34
  %24 = load double, ptr %23, align 8, !tbaa !18
  %25 = getelementptr inbounds nuw double, ptr %8, i64 %indvars.iv.i34
  %26 = load double, ptr %25, align 8, !tbaa !18
  %27 = fmul double %24, %26
  %28 = getelementptr inbounds nuw double, ptr %9, i64 %indvars.iv.i34
  store double %27, ptr %28, align 8, !tbaa !18
  %indvars.iv.next.i35 = add nuw nsw i64 %indvars.iv.i34, 1
  %exitcond.not.i36 = icmp eq i64 %indvars.iv.next.i35, %wide.trip.count.i
  br i1 %exitcond.not.i36, label %29, label %.preheader.i33

arkode_butcher_vv.exit38:                         ; preds = %20
  tail call void @free(ptr noundef nonnull %8) #17
  tail call void @free(ptr noundef %9) #17
  br label %arkode_butcher_dot.exit

29:                                               ; preds = %.preheader.i33
  %30 = icmp eq ptr %4, null
  br i1 %30, label %arkode_butcher_vv.exit49, label %.preheader.i44

.preheader.i44:                                   ; preds = %29, %.preheader.i44
  %indvars.iv.i45 = phi i64 [ %indvars.iv.next.i46, %.preheader.i44 ], [ 0, %29 ]
  %31 = getelementptr inbounds nuw double, ptr %4, i64 %indvars.iv.i45
  %32 = load double, ptr %31, align 8, !tbaa !18
  %33 = getelementptr inbounds nuw double, ptr %9, i64 %indvars.iv.i45
  %34 = load double, ptr %33, align 8, !tbaa !18
  %35 = fmul double %32, %34
  %36 = getelementptr inbounds nuw double, ptr %8, i64 %indvars.iv.i45
  store double %35, ptr %36, align 8, !tbaa !18
  %indvars.iv.next.i46 = add nuw nsw i64 %indvars.iv.i45, 1
  %exitcond.not.i47 = icmp eq i64 %indvars.iv.next.i46, %wide.trip.count.i
  br i1 %exitcond.not.i47, label %37, label %.preheader.i44

arkode_butcher_vv.exit49:                         ; preds = %29
  tail call void @free(ptr noundef nonnull %8) #17
  tail call void @free(ptr noundef nonnull %9) #17
  br label %arkode_butcher_dot.exit

37:                                               ; preds = %.preheader.i44
  %38 = icmp eq ptr %0, null
  br i1 %38, label %arkode_butcher_dot.exit, label %.preheader

.preheader:                                       ; preds = %37, %.preheader
  %indvars.iv.i53 = phi i64 [ %indvars.iv.next.i54, %.preheader ], [ 0, %37 ]
  %39 = phi double [ %44, %.preheader ], [ 0.000000e+00, %37 ]
  %40 = getelementptr inbounds nuw double, ptr %0, i64 %indvars.iv.i53
  %41 = load double, ptr %40, align 8, !tbaa !18
  %42 = getelementptr inbounds nuw double, ptr %8, i64 %indvars.iv.i53
  %43 = load double, ptr %42, align 8, !tbaa !18
  %44 = tail call double @llvm.fmuladd.f64(double %41, double %43, double %39)
  %indvars.iv.next.i54 = add nuw nsw i64 %indvars.iv.i53, 1
  %exitcond.not.i55 = icmp eq i64 %indvars.iv.next.i54, %wide.trip.count.i
  br i1 %exitcond.not.i55, label %45, label %.preheader

45:                                               ; preds = %.preheader
  tail call void @free(ptr noundef nonnull %8) #17
  tail call void @free(ptr noundef %9) #17
  %46 = fadd double %44, -2.000000e-01
  %47 = tail call double @llvm.fabs.f64(double %46)
  %48 = fcmp ule double %47, 0x3E50000000000000
  %49 = zext i1 %48 to i32
  br label %arkode_butcher_dot.exit

arkode_butcher_dot.exit:                          ; preds = %37, %45, %arkode_butcher_vv.exit49, %arkode_butcher_vv.exit38, %arkode_butcher_vv.exit
  %.0 = phi i32 [ 0, %arkode_butcher_vv.exit ], [ 0, %arkode_butcher_vv.exit38 ], [ 0, %arkode_butcher_vv.exit49 ], [ %49, %45 ], [ 0, %37 ]
  ret i32 %.0
}